target datalayout = "e-m:e-p270:32:32-p271:32:32-p272:64:64-i64:64-i128:128-f80:128-n8:16:32:64-S128"
target triple = "x86_64-pc-linux-gnu"

@.str.20 = private unnamed_addr constant [54 x i8] c"json: no owner object specified to cli_json_addowner\0A\00", align 1
@.str.21 = private unnamed_addr constant [54 x i8] c"json: no child object specified to cli_json_addowner\0A\00", align 1
@.str.22 = private unnamed_addr constant [52 x i8] c"json: null string specified as key to cli_addowner\0A\00", align 1
@.str.23 = private unnamed_addr constant [43 x i8] c"json: cannot delete idx %d of owner array\0A\00", align 1
@.str.24 = private unnamed_addr constant [45 x i8] c"json: no owner object cannot hold ownership\0A\00", align 1

; Function Attrs: nounwind uwtable
define i32 @cli_json_addowner(ptr noundef %0, ptr noundef %1, ptr noundef %2, i32 noundef %3) #0 {
  %5 = alloca i32, align 4
  %6 = alloca ptr, align 8
  %7 = alloca ptr, align 8
  %8 = alloca ptr, align 8
  %9 = alloca i32, align 4
  %10 = alloca i32, align 4
  store ptr %0, ptr %6, align 8
  store ptr %1, ptr %7, align 8
  store ptr %2, ptr %8, align 8
  store i32 %3, ptr %9, align 4
  %11 = load ptr, ptr %6, align 8
  %12 = icmp eq ptr null, %11
  br i1 %12, label %13, label %14

13:                                               ; preds = %4
  call void (ptr, ...) @cli_dbgmsg(ptr noundef @.str.20)
  store i32 2, ptr %5, align 4
  br label %64

14:                                               ; preds = %4
  %15 = load ptr, ptr %7, align 8
  %16 = icmp eq ptr null, %15
  br i1 %16, label %17, label %18

17:                                               ; preds = %14
  call void (ptr, ...) @cli_dbgmsg(ptr noundef @.str.21)
  store i32 2, ptr %5, align 4
  br label %64

18:                                               ; preds = %14
  %19 = load ptr, ptr %6, align 8
  %20 = call i32 @json_object_get_type(ptr noundef %19)
  store i32 %20, ptr %10, align 4
  %21 = load i32, ptr %10, align 4
  %22 = icmp eq i32 %21, 4
  br i1 %22, label %23, label %32

23:                                               ; preds = %18
  %24 = load ptr, ptr %8, align 8
  %25 = icmp eq ptr null, %24
  br i1 %25, label %26, label %27

26:                                               ; preds = %23
  call void (ptr, ...) @cli_dbgmsg(ptr noundef @.str.22)
  store i32 2, ptr %5, align 4
  br label %64

27:                                               ; preds = %23
  %28 = load ptr, ptr %6, align 8
  %29 = load ptr, ptr %8, align 8
  %30 = load ptr, ptr %7, align 8
  %31 = call i32 @json_object_object_add(ptr noundef %28, ptr noundef %29, ptr noundef %30)
  br label %61

32:                                               ; preds = %18
  %33 = load i32, ptr %10, align 4
  %34 = icmp eq i32 %33, 5
  br i1 %34, label %35, label %59

35:                                               ; preds = %32
  %36 = load i32, ptr %9, align 4
  %37 = icmp slt i32 %36, 0
  br i1 %37, label %44, label %38

38:                                               ; preds = %35
  %39 = load ptr, ptr %6, align 8
  %40 = load i32, ptr %9, align 4
  %41 = sext i32 %40 to i64
  %42 = call ptr @json_object_array_get_idx(ptr noundef %39, i64 noundef %41)
  %43 = icmp eq ptr null, %42
  br i1 %43, label %44, label %48

44:                                               ; preds = %38, %35
  %45 = load ptr, ptr %6, align 8
  %46 = load ptr, ptr %7, align 8
  %47 = call i32 @json_object_array_add(ptr noundef %45, ptr noundef %46)
  br label %58

48:                                               ; preds = %38
  %49 = load ptr, ptr %6, align 8
  %50 = load i32, ptr %9, align 4
  %51 = sext i32 %50 to i64
  %52 = load ptr, ptr %7, align 8
  %53 = call i32 @json_object_array_put_idx(ptr noundef %49, i64 noundef %51, ptr noundef %52)
  %54 = icmp ne i32 0, %53
  br i1 %54, label %55, label %57

55:                                               ; preds = %48
  %56 = load i32, ptr %9, align 4
  call void (ptr, ...) @cli_dbgmsg(ptr noundef @.str.23, i32 noundef %56)
  store i32 22, ptr %5, align 4
  br label %64

57:                                               ; preds = %48
  br label %58

58:                                               ; preds = %57, %44
  br label %60

59:                                               ; preds = %32
  call void (ptr, ...) @cli_dbgmsg(ptr noundef @.str.24)
  store i32 3, ptr %5, align 4
  br label %64

60:                                               ; preds = %58
  br label %61

61:                                               ; preds = %60, %27
  %62 = load ptr, ptr %7, align 8
  %63 = call ptr @json_object_get(ptr noundef %62)
  store i32 0, ptr %5, align 4
  br label %64

64:                                               ; preds = %61, %59, %55, %26, %17, %13
  %65 = load i32, ptr %5, align 4
  ret i32 %65
}