; Function Attrs: nounwind uwtable
define noundef i32 @cli_json_addowner(ptr noundef %0, ptr noundef %1, ptr noundef %2, i32 noundef %3) local_unnamed_addr #0 {
  %5 = icmp eq ptr %0, null
  br i1 %5, label %6, label %7

6:                                                ; preds = %4
  tail call void (ptr, ...) @cli_dbgmsg(ptr noundef nonnull @.str.20) #2
  br label %31

7:                                                ; preds = %4
  %8 = icmp eq ptr %1, null
  br i1 %8, label %9, label %10

9:                                                ; preds = %7
  tail call void (ptr, ...) @cli_dbgmsg(ptr noundef nonnull @.str.21) #2
  br label %31

10:                                               ; preds = %7
  %11 = tail call i32 @json_object_get_type(ptr noundef nonnull %0) #2
  switch i32 %11, label %28 [
    i32 4, label %12
    i32 5, label %17
  ]

12:                                               ; preds = %10
  %13 = icmp eq ptr %2, null
  br i1 %13, label %14, label %15

14:                                               ; preds = %12
  tail call void (ptr, ...) @cli_dbgmsg(ptr noundef nonnull @.str.22) #2
  br label %31

15:                                               ; preds = %12
  %16 = tail call i32 @json_object_object_add(ptr noundef nonnull %0, ptr noundef nonnull %2, ptr noundef nonnull %1) #2
  br label %29

17:                                               ; preds = %10
  %18 = icmp slt i32 %3, 0
  br i1 %18, label %23, label %19

19:                                               ; preds = %17
  %20 = zext nneg i32 %3 to i64
  %21 = tail call ptr @json_object_array_get_idx(ptr noundef nonnull %0, i64 noundef %20) #2
  %22 = icmp eq ptr %21, null
  br i1 %22, label %23, label %25

23:                                               ; preds = %19, %17
  %24 = tail call i32 @json_object_array_add(ptr noundef nonnull %0, ptr noundef nonnull %1) #2
  br label %29

25:                                               ; preds = %19
  %26 = tail call i32 @json_object_array_put_idx(ptr noundef nonnull %0, i64 noundef %20, ptr noundef nonnull %1) #2
  %.not = icmp eq i32 %26, 0
  br i1 %.not, label %29, label %27

27:                                               ; preds = %25
  tail call void (ptr, ...) @cli_dbgmsg(ptr noundef nonnull @.str.23, i32 noundef %3) #2
  br label %31

28:                                               ; preds = %10
  tail call void (ptr, ...) @cli_dbgmsg(ptr noundef nonnull @.str.24) #2
  br label %31

29:                                               ; preds = %25, %23, %15
  %30 = tail call ptr @json_object_get(ptr noundef nonnull %1) #2
  br label %31

31:                                               ; preds = %29, %28, %27, %14, %9, %6
  %.0 = phi i32 [ 2, %6 ], [ 2, %9 ], [ 2, %14 ], [ 0, %29 ], [ 22, %27 ], [ 3, %28 ]
  ret i32 %.0
}